target datalayout = "e-m:e-p270:32:32-p271:32:32-p272:64:64-i64:64-i128:128-f80:128-n8:16:32:64-S128"
target triple = "x86_64-unknown-linux-gnu"

; Function Attrs: mustprogress uwtable
define noundef double @_ZNK8QuantLib18FdmSquareRootFwdOp1hEm(ptr noundef nonnull align 8 dereferenceable(80) %this, i64 noundef %i) #4 align 2 {
entry:
  %this.addr = alloca ptr, align 8
  %i.addr = alloca i64, align 8
  store ptr %this, ptr %this.addr, align 8, !tbaa !3
  store i64 %i, ptr %i.addr, align 8, !tbaa !9
  %this1 = load ptr, ptr %this.addr, align 8
  %0 = load i64, ptr %i.addr, align 8, !tbaa !9
  %add = add i64 %0, 1
  %call = call noundef double @_ZNK8QuantLib18FdmSquareRootFwdOp1vEm(ptr noundef nonnull align 8 dereferenceable(80) %this1, i64 noundef %add)
  %1 = load i64, ptr %i.addr, align 8, !tbaa !9
  %call2 = call noundef double @_ZNK8QuantLib18FdmSquareRootFwdOp1vEm(ptr noundef nonnull align 8 dereferenceable(80) %this1, i64 noundef %1)
  %sub = fsub double %call, %call2
  ret double %sub
}

; Function Attrs: mustprogress uwtable
define noundef double @_ZNK8QuantLib18FdmSquareRootFwdOp4zetaEm(ptr noundef nonnull align 8 dereferenceable(80) %this, i64 noundef %i) #4 align 2 {
entry:
  %this.addr = alloca ptr, align 8
  %i.addr = alloca i64, align 8
  store ptr %this, ptr %this.addr, align 8, !tbaa !3
  store i64 %i, ptr %i.addr, align 8, !tbaa !9
  %this1 = load ptr, ptr %this.addr, align 8
  %0 = load i64, ptr %i.addr, align 8, !tbaa !9
  %sub = sub i64 %0, 1
  %call = call noundef double @_ZNK8QuantLib18FdmSquareRootFwdOp1hEm(ptr noundef nonnull align 8 dereferenceable(80) %this1, i64 noundef %sub)
  %1 = load i64, ptr %i.addr, align 8, !tbaa !9
  %call2 = call noundef double @_ZNK8QuantLib18FdmSquareRootFwdOp1hEm(ptr noundef nonnull align 8 dereferenceable(80) %this1, i64 noundef %1)
  %mul = fmul double %call, %call2
  ret double %mul
}