; Function Attrs: mustprogress uwtable
define noundef double @_ZNK8QuantLib18FdmSquareRootFwdOp4zetaEm(ptr nocapture noundef nonnull readonly align 8 dereferenceable(80) %this, i64 noundef %i) local_unnamed_addr #3 align 2 {
entry:
  %sub = add i64 %i, -1
  %call.i = tail call noundef double @_ZNK8QuantLib18FdmSquareRootFwdOp1vEm(ptr noundef nonnull readonly align 8 dereferenceable(80) %this, i64 noundef %i)
  %call2.i = tail call noundef double @_ZNK8QuantLib18FdmSquareRootFwdOp1vEm(ptr noundef nonnull readonly align 8 dereferenceable(80) %this, i64 noundef %sub)
  %sub.i = fsub double %call.i, %call2.i
  %add.i = add i64 %i, 1
  %call.i2 = tail call noundef double @_ZNK8QuantLib18FdmSquareRootFwdOp1vEm(ptr noundef nonnull readonly align 8 dereferenceable(80) %this, i64 noundef %add.i)
  %call2.i3 = tail call noundef double @_ZNK8QuantLib18FdmSquareRootFwdOp1vEm(ptr noundef nonnull readonly align 8 dereferenceable(80) %this, i64 noundef %i)
  %sub.i4 = fsub double %call.i2, %call2.i3
  %mul = fmul double %sub.i, %sub.i4
  ret double %mul
}